; Function Attrs: nounwind uwtable
define noundef nonnull ptr @l_Std_DHashMap_Internal_AssocList_contains___at_Lean_Server_dedupReferences___spec__1___boxed(ptr noundef %0, ptr noundef %1) local_unnamed_addr #0 {
  %3 = getelementptr inbounds nuw i8, ptr %0, i64 8
  %4 = getelementptr inbounds nuw i8, ptr %0, i64 16
  br label %.backedge.i

.backedge.i:                                      ; preds = %.backedge.i.backedge, %2
  %.026.i = phi ptr [ %1, %2 ], [ %18, %.backedge.i.backedge ]
  %5 = ptrtoint ptr %.026.i to i64
  %6 = and i64 %5, 1
  %.not.i.i = icmp eq i64 %6, 0
  br i1 %.not.i.i, label %10, label %7

7:                                                ; preds = %.backedge.i
  %8 = lshr i64 %5, 1
  %9 = trunc i64 %8 to i32
  br label %lean_obj_tag.exit.i

10:                                               ; preds = %.backedge.i
  %11 = getelementptr i8, ptr %.026.i, i64 4
  %.val.i.i = load i32, ptr %11, align 4
  %12 = lshr i32 %.val.i.i, 24
  br label %lean_obj_tag.exit.i

lean_obj_tag.exit.i:                              ; preds = %10, %7
  %.0.i.i = phi i32 [ %9, %7 ], [ %12, %10 ]
  %13 = icmp eq i32 %.0.i.i, 0
  br i1 %13, label %l_Std_DHashMap_Internal_AssocList_contains___at_Lean_Server_dedupReferences___spec__1.exit, label %14

14:                                               ; preds = %lean_obj_tag.exit.i
  %15 = getelementptr inbounds nuw i8, ptr %.026.i, i64 8
  %16 = load ptr, ptr %15, align 8, !tbaa !4
  %17 = getelementptr inbounds nuw i8, ptr %.026.i, i64 24
  %18 = load ptr, ptr %17, align 8, !tbaa !4
  %19 = getelementptr inbounds nuw i8, ptr %16, i64 8
  %20 = load ptr, ptr %19, align 8, !tbaa !4
  %21 = getelementptr inbounds nuw i8, ptr %16, i64 16
  %22 = load ptr, ptr %21, align 8, !tbaa !4
  %23 = load ptr, ptr %3, align 8, !tbaa !4
  %24 = load ptr, ptr %4, align 8, !tbaa !4
  %25 = tail call zeroext i8 @l_Lean_Lsp_beqRefIdent____x40_Lean_Data_Lsp_Internal___hyg_45_(ptr noundef %20, ptr noundef %23) #8
  %26 = icmp eq i8 %25, 0
  br i1 %26, label %.backedge.i.backedge, label %27

27:                                               ; preds = %14
  %28 = getelementptr inbounds nuw i8, ptr %22, i64 8
  %29 = load ptr, ptr %28, align 8, !tbaa !4
  %30 = getelementptr inbounds nuw i8, ptr %22, i64 16
  %31 = load ptr, ptr %30, align 8, !tbaa !4
  %32 = getelementptr inbounds nuw i8, ptr %24, i64 8
  %33 = load ptr, ptr %32, align 8, !tbaa !4
  %34 = getelementptr inbounds nuw i8, ptr %24, i64 16
  %35 = load ptr, ptr %34, align 8, !tbaa !4
  %36 = tail call zeroext i8 @l_Option_beqOption____x40_Init_Data_Option_Basic___hyg_160____at_Lean_PrettyPrinter_delabCore___spec__3(ptr noundef %29, ptr noundef %33) #8
  %37 = icmp eq i8 %36, 0
  br i1 %37, label %.backedge.i.backedge, label %38

38:                                               ; preds = %27
  %39 = tail call zeroext i8 @l_Lean_Lsp_beqRange____x40_Lean_Data_Lsp_Basic___hyg_500_(ptr noundef %31, ptr noundef %35) #8
  %.not.i8 = icmp eq i8 %39, 0
  br i1 %.not.i8, label %.backedge.i.backedge, label %l_Std_DHashMap_Internal_AssocList_contains___at_Lean_Server_dedupReferences___spec__1.exit

.backedge.i.backedge:                             ; preds = %38, %27, %14
  br label %.backedge.i

l_Std_DHashMap_Internal_AssocList_contains___at_Lean_Server_dedupReferences___spec__1.exit: ; preds = %lean_obj_tag.exit.i, %38
  %.1.i = phi i64 [ 1, %lean_obj_tag.exit.i ], [ 3, %38 ]
  %40 = ptrtoint ptr %1 to i64
  %41 = and i64 %40, 1
  %.not = icmp eq i64 %41, 0
  br i1 %.not, label %42, label %lean_dec.exit5

42:                                               ; preds = %l_Std_DHashMap_Internal_AssocList_contains___at_Lean_Server_dedupReferences___spec__1.exit
  %43 = load i32, ptr %1, align 4, !tbaa !8
  %44 = icmp sgt i32 %43, 1
  br i1 %44, label %45, label %47, !prof !11

45:                                               ; preds = %42
  %46 = add nsw i32 %43, -1
  store i32 %46, ptr %1, align 4, !tbaa !8
  br label %lean_dec.exit5

47:                                               ; preds = %42
  %.not.i = icmp eq i32 %43, 0
  br i1 %.not.i, label %lean_dec.exit5, label %48

48:                                               ; preds = %47
  tail call void @lean_dec_ref_cold(ptr noundef nonnull %1) #8
  br label %lean_dec.exit5

lean_dec.exit5:                                   ; preds = %48, %47, %45, %l_Std_DHashMap_Internal_AssocList_contains___at_Lean_Server_dedupReferences___spec__1.exit
  %49 = ptrtoint ptr %0 to i64
  %50 = and i64 %49, 1
  %.not9 = icmp eq i64 %50, 0
  br i1 %.not9, label %51, label %lean_dec.exit

51:                                               ; preds = %lean_dec.exit5
  %52 = load i32, ptr %0, align 4, !tbaa !8
  %53 = icmp sgt i32 %52, 1
  br i1 %53, label %54, label %56, !prof !11

54:                                               ; preds = %51
  %55 = add nsw i32 %52, -1
  store i32 %55, ptr %0, align 4, !tbaa !8
  br label %lean_dec.exit

56:                                               ; preds = %51
  %.not.i6 = icmp eq i32 %52, 0
  br i1 %.not.i6, label %lean_dec.exit, label %57

57:                                               ; preds = %56
  tail call void @lean_dec_ref_cold(ptr noundef nonnull %0) #8
  br label %lean_dec.exit

lean_dec.exit:                                    ; preds = %57, %56, %54, %lean_dec.exit5
  %58 = inttoptr i64 %.1.i to ptr
  ret ptr %58
}